target datalayout = "e-m:e-p270:32:32-p271:32:32-p272:64:64-i64:64-i128:128-f80:128-n8:16:32:64-S128"
target triple = "x86_64-pc-linux-gnu"

%"class.rocksdb::WriteThread" = type { ptr, i64, i64, i8, i8, i64, %"struct.std::atomic", %"struct.std::atomic", i64, %"struct.rocksdb::WriteThread::Writer", %"class.rocksdb::port::Mutex", %"class.rocksdb::port::CondVar", i64, i64 }
%"struct.std::atomic" = type { %"struct.std::__atomic_base" }
%"struct.std::__atomic_base" = type { ptr }
%"struct.rocksdb::WriteThread::Writer" = type <{ ptr, i8, i8, i8, i8, i32, i8, [7 x i8], i64, i64, ptr, ptr, i64, i64, ptr, ptr, i8, %"struct.std::atomic.3", [6 x i8], ptr, i64, %"class.rocksdb::Status", %"class.rocksdb::Status", %"struct.rocksdb::aligned_storage<std::mutex>::type", %"struct.rocksdb::aligned_storage<std::condition_variable>::type", ptr, ptr, i8, [7 x i8] }>
%"struct.std::atomic.3" = type { %"struct.std::__atomic_base.4" }
%"struct.std::__atomic_base.4" = type { i8 }
%"class.rocksdb::Status" = type { i8, i8, i8, i8, i8, i8, %"class.std::unique_ptr" }
%"class.std::unique_ptr" = type { %"struct.std::__uniq_ptr_data" }
%"struct.std::__uniq_ptr_data" = type { %"class.std::__uniq_ptr_impl" }
%"class.std::__uniq_ptr_impl" = type { %"class.std::tuple" }
%"class.std::tuple" = type { %"struct.std::_Tuple_impl" }
%"struct.std::_Tuple_impl" = type { %"struct.std::_Head_base.6" }
%"struct.std::_Head_base.6" = type { ptr }
%"struct.rocksdb::aligned_storage<std::mutex>::type" = type { [40 x i8] }
%"struct.rocksdb::aligned_storage<std::condition_variable>::type" = type { [48 x i8] }
%"class.rocksdb::port::Mutex" = type { %union.pthread_mutex_t }
%union.pthread_mutex_t = type { %struct.__pthread_mutex_s }
%struct.__pthread_mutex_s = type { i32, i32, i32, i32, i32, i16, i16, %struct.__pthread_internal_list }
%struct.__pthread_internal_list = type { ptr, ptr }
%"class.rocksdb::port::CondVar" = type { %union.pthread_cond_t, ptr }
%union.pthread_cond_t = type { %struct.__pthread_cond_s }
%struct.__pthread_cond_s = type { %union.__atomic_wide_counter, %union.__atomic_wide_counter, [2 x i32], [2 x i32], i32, i32, [2 x i32] }
%union.__atomic_wide_counter = type { i64 }

; Function Attrs: mustprogress nounwind uwtable
define noundef i64 @_ZN7rocksdb11WriteThread31GetBegunCountOfOutstandingStallEv(ptr noundef nonnull align 8 dereferenceable(432) %0) #3 align 2 {
  %2 = alloca i64, align 8
  %3 = alloca ptr, align 8
  store ptr %0, ptr %3, align 8, !tbaa !48
  %4 = load ptr, ptr %3, align 8
  %5 = getelementptr inbounds nuw %"class.rocksdb::WriteThread", ptr %4, i32 0, i32 12
  %6 = load i64, ptr %5, align 8, !tbaa !148
  %7 = getelementptr inbounds nuw %"class.rocksdb::WriteThread", ptr %4, i32 0, i32 13
  %8 = load i64, ptr %7, align 8, !tbaa !149
  %9 = icmp ugt i64 %6, %8
  br i1 %9, label %10, label %13

10:                                               ; preds = %1
  %11 = getelementptr inbounds nuw %"class.rocksdb::WriteThread", ptr %4, i32 0, i32 12
  %12 = load i64, ptr %11, align 8, !tbaa !148
  store i64 %12, ptr %2, align 8
  br label %14

13:                                               ; preds = %1
  store i64 0, ptr %2, align 8
  br label %14

14:                                               ; preds = %13, %10
  %15 = load i64, ptr %2, align 8
  ret i64 %15
}