; Function Attrs: mustprogress nofree norecurse nosync nounwind willreturn memory(argmem: read) uwtable
define noundef i64 @_ZN7rocksdb11WriteThread31GetBegunCountOfOutstandingStallEv(ptr noundef nonnull readonly align 8 captures(none) dereferenceable(432) %0) local_unnamed_addr #11 align 2 {
  %2 = getelementptr inbounds nuw i8, ptr %0, i64 416
  %3 = load i64, ptr %2, align 8, !tbaa !169
  %4 = getelementptr inbounds nuw i8, ptr %0, i64 424
  %5 = load i64, ptr %4, align 8, !tbaa !173
  %6 = icmp ugt i64 %3, %5
  %. = select i1 %6, i64 %3, i64 0
  ret i64 %.
}